; Function Attrs: mustprogress nofree norecurse nosync nounwind willreturn memory(argmem: read) uwtable
define i32 @ff_inlink_queued_samples(ptr noundef readonly captures(none) %0) local_unnamed_addr #8 {
  %2 = getelementptr i8, ptr %0, i64 344
  %.val = load i64, ptr %2, align 8, !tbaa !166
  %3 = getelementptr i8, ptr %0, i64 352
  %.val2 = load i64, ptr %3, align 8, !tbaa !167
  %4 = sub i64 %.val, %.val2
  %5 = trunc i64 %4 to i32
  ret i32 %5
}